(dp0
cnumpy.core.multiarray
scalar
p1
(cnumpy
dtype
p2
(S'i8'
p3
I0
I1
tp4
Rp5
(I3
S'<'
p6
NNNI-1
I-1
I0
tp7
bS'\x00\x00\x00\x00\x00\x00\x00\x00'
p8
tp9
Rp10
(dp11
S'salary'
p12
F365788.0
sS'to_messages'
p13
F807.0
sS'total_payments'
p14
F1061827.0
sS'fraction_from_poi'
p15
F4.708798017348203
sS'bonus'
p16
F600000.0
sS'poi_ratio'
p17
F4.6650717703349285
sS'total_stock_value'
p18
F585062.0
sS'expenses'
p19
F94299.0
sS'fraction_to_poi'
p20
F3.4482758620689653
sS'exercised_stock_options'
p21
F0.0
sS'from_messages'
p22
F29.0
sS'other'
p23
F1740.0
sS'from_this_person_to_poi'
p24
F1.0
sS'poi'
p25
I00
sS'shared_receipt_with_poi'
p26
F702.0
sS'restricted_stock'
p27
F585062.0
sS'from_poi_to_this_person'
p28
F38.0
ssg1
(g5
S'\x01\x00\x00\x00\x00\x00\x00\x00'
p29
tp30
Rp31
(dp32
g12
F267102.0
sg13
F0.0
sg14
F5634343.0
sg15
F0.0
sg16
F1200000.0
sg17
F0.0
sg18
F10623258.0
sg19
F11200.0
sg20
F0.0
sg21
F6680544.0
sg22
F0.0
sg23
F2660303.0
sg24
F0.0
sg25
I00
sg26
F0.0
sg27
F3942714.0
sg28
F0.0
ssg1
(g5
S'\x02\x00\x00\x00\x00\x00\x00\x00'
p33
tp34
Rp35
(dp36
g12
F170941.0
sg13
F0.0
sg14
F211725.0
sg15
F0.0
sg16
F350000.0
sg17
F0.0
sg18
F6678735.0
sg19
F78552.0
sg20
F0.0
sg21
F4890344.0
sg22
F0.0
sg23
F12961.0
sg24
F0.0
sg25
I00
sg26
F0.0
sg27
F1788391.0
sg28
F0.0
ssg1
(g5
S'\x03\x00\x00\x00\x00\x00\x00\x00'
p37
tp38
Rp39
(dp40
g12
F0.0
sg13
F764.0
sg14
F0.0
sg15
F1.3089005235602094
sg16
F0.0
sg17
F1.2886597938144329
sg18
F1038185.0
sg19
F0.0
sg20
F0.0
sg21
F651850.0
sg22
F12.0
sg23
F0.0
sg24
F0.0
sg25
I00
sg26
F58.0
sg27
F386335.0
sg28
F10.0
ssg1
(g5
S'\x04\x00\x00\x00\x00\x00\x00\x00'
p41
tp42
Rp43
(dp44
g12
F243293.0
sg13
F1045.0
sg14
F288682.0
sg15
F3.062200956937799
sg16
F1500000.0
sg17
F4.921077065923862
sg18
F6391065.0
sg19
F34039.0
sg20
F65.625
sg21
F5538001.0
sg22
F32.0
sg23
F11350.0
sg24
F21.0
sg25
I01
sg26
F1035.0
sg27
F853064.0
sg28
F32.0
ssg1
(g5
S'\x05\x00\x00\x00\x00\x00\x00\x00'
p45
tp46
Rp47
(dp48
g12
F267093.0
sg13
F0.0
sg14
F628522.0
sg15
F0.0
sg16
F325000.0
sg17
F0.0
sg18
F208510.0
sg19
F35018.0
sg20
F0.0
sg21
F0.0
sg22
F0.0
sg23
F1411.0
sg24
F0.0
sg25
I00
sg26
F0.0
sg27
F208510.0
sg28
F0.0
ssg1
(g5
S'\x06\x00\x00\x00\x00\x00\x00\x00'
p49
tp50
Rp51
(dp52
g12
F0.0
sg13
F232.0
sg14
F1848227.0
sg15
F0.0
sg16
F0.0
sg17
F0.0
sg18
F955873.0
sg19
F0.0
sg20
F0.0
sg21
F493489.0
sg22
F28.0
sg23
F0.0
sg24
F0.0
sg25
I00
sg26
F22.0
sg27
F462384.0
sg28
F0.0
ssg1
(g5
S'\x07\x00\x00\x00\x00\x00\x00\x00'
p53
tp54
Rp55
(dp56
g12
F370448.0
sg13
F2355.0
sg14
F4099771.0
sg15
F2.4628450106157116
sg16
F2600000.0
sg17
F3.495630461922597
sg18
F1662855.0
sg19
F137108.0
sg20
F54.166666666666664
sg21
F1104054.0
sg22
F48.0
sg23
F297353.0
sg24
F26.0
sg25
I00
sg26
F2228.0
sg27
F558801.0
sg28
F58.0
ssg1
(g5
S'\x08\x00\x00\x00\x00\x00\x00\x00'
p57
tp58
Rp59
(dp60
g12
F0.0
sg13
F2350.0
sg14
F3131860.0
sg15
F1.872340425531915
sg16
F0.0
sg17
F1.7236342389716621
sg18
F7256648.0
sg19
F0.0
sg20
F1.3979496738117427
sg21
F5210569.0
sg22
F1073.0
sg23
F0.0
sg24
F15.0
sg25
I00
sg26
F1074.0
sg27
F2046079.0
sg28
F44.0
ssg1
(g5
S'\t\x00\x00\x00\x00\x00\x00\x00'
p61
tp62
Rp63
(dp64
g12
F197091.0
sg13
F1238.0
sg14
F1737629.0
sg15
F4.92730210016155
sg16
F400000.0
sg17
F7.465753424657534
sg18
F880290.0
sg19
F43057.0
sg20
F21.62162162162162
sg21
F880290.0
sg22
F222.0
sg23
F778.0
sg24
F48.0
sg25
I00
sg26
F742.0
sg27
F409554.0
sg28
F61.0
ssg1
(g5
S'\n\x00\x00\x00\x00\x00\x00\x00'
p65
tp66
Rp67
(dp68
g12
F130724.0
sg13
F128.0
sg14
F3100224.0
sg15
F7.8125
sg16
F0.0
sg17
F18.620689655172416
sg18
F2282768.0
sg19
F4994.0
sg20
F100.0
sg21
F2282768.0
sg22
F17.0
sg23
F0.0
sg24
F17.0
sg25
I00
sg26
F119.0
sg27
F0.0
sg28
F10.0
ssg1
(g5
S'\x0b\x00\x00\x00\x00\x00\x00\x00'
p69
tp70
Rp71
(dp72
g12
F288589.0
sg13
F111.0
sg14
F1130461.0
sg15
F10.81081081081081
sg16
F788750.0
sg17
F9.30232558139535
sg18
F0.0
sg19
F53122.0
sg20
F0.0
sg21
F0.0
sg22
F18.0
sg23
F0.0
sg24
F0.0
sg25
I00
sg26
F41.0
sg27
F0.0
sg28
F12.0
ssg1
(g5
S'\x0c\x00\x00\x00\x00\x00\x00\x00'
p73
tp74
Rp75
(dp76
g12
F248546.0
sg13
F2475.0
sg14
F2014835.0
sg15
F1.0101010101010102
sg16
F850000.0
sg17
F1.0847730012053034
sg18
F954354.0
sg19
F84208.0
sg20
F14.285714285714285
sg21
F765313.0
sg22
F14.0
sg23
F272.0
sg24
F2.0
sg25
I00
sg26
F2326.0
sg27
F189041.0
sg28
F25.0
ssg1
(g5
S'\r\x00\x00\x00\x00\x00\x00\x00'
p77
tp78
Rp79
(dp80
g12
F257486.0
sg13
F2647.0
sg14
F1545059.0
sg15
F1.3978088401964488
sg16
F700000.0
sg17
F1.86219739292365
sg18
F698920.0
sg19
F0.0
sg20
F34.21052631578947
sg21
F0.0
sg22
F38.0
sg23
F111122.0
sg24
F13.0
sg25
I00
sg26
F2565.0
sg27
F698920.0
sg28
F37.0
ssg1
(g5
S'\x0e\x00\x00\x00\x00\x00\x00\x00'
p81
tp82
Rp83
(dp84
g12
F0.0
sg13
F169.0
sg14
F966522.0
sg15
F0.0
sg16
F0.0
sg17
F0.0
sg18
F2218275.0
sg19
F0.0
sg20
F0.0
sg21
F2218275.0
sg22
F12.0
sg23
F0.0
sg24
F0.0
sg25
I00
sg26
F23.0
sg27
F0.0
sg28
F0.0
ssg1
(g5
S'\x0f\x00\x00\x00\x00\x00\x00\x00'
p85
tp86
Rp87
(dp88
g12
F0.0
sg13
F0.0
sg14
F0.0
sg15
F0.0
sg16
F0.0
sg17
F0.0
sg18
F372205.0
sg19
F0.0
sg20
F0.0
sg21
F372205.0
sg22
F0.0
sg23
F0.0
sg24
F0.0
sg25
I00
sg26
F0.0
sg27
F153686.0
sg28
F0.0
ssg1
(g5
S'\x10\x00\x00\x00\x00\x00\x00\x00'
p89
tp90
Rp91
(dp92
g12
F288542.0
sg13
F1758.0
sg14
F1490344.0
sg15
F13.651877133105803
sg16
F1200000.0
sg17
F13.959955506117907
sg18
F698242.0
sg19
F16514.0
sg20
F27.500000000000004
sg21
F0.0
sg22
F40.0
sg23
F101740.0
sg24
F11.0
sg25
I01
sg26
F1132.0
sg27
F698242.0
sg28
F240.0
ssg1
(g5
S'\x11\x00\x00\x00\x00\x00\x00\x00'
p93
tp94
Rp95
(dp96
g12
F251654.0
sg13
F136.0
sg14
F3202070.0
sg15
F8.823529411764707
sg16
F1100000.0
sg17
F7.894736842105263
sg18
F1416848.0
sg19
F0.0
sg20
F0.0
sg21
F1056320.0
sg22
F16.0
sg23
F947.0
sg24
F0.0
sg25
I00
sg26
F114.0
sg27
F360528.0
sg28
F12.0
ssg1
(g5
S'\x12\x00\x00\x00\x00\x00\x00\x00'
p97
tp98
Rp99
(dp100
g12
F288558.0
sg13
F258.0
sg14
F551174.0
sg15
F9.689922480620156
sg16
F250000.0
sg17
F14.012738853503185
sg18
F725735.0
sg19
F10181.0
sg20
F33.92857142857143
sg21
F185063.0
sg22
F56.0
sg23
F2435.0
sg24
F19.0
sg25
I00
sg26
F117.0
sg27
F540672.0
sg28
F25.0
ssg1
(g5
S'\x13\x00\x00\x00\x00\x00\x00\x00'
p101
tp102
Rp103
(dp104
g12
F63744.0
sg13
F0.0
sg14
F762135.0
sg15
F0.0
sg16
F0.0
sg17
F0.0
sg18
F384930.0
sg19
F51870.0
sg20
F0.0
sg21
F0.0
sg22
F0.0
sg23
F401130.0
sg24
F0.0
sg25
I00
sg26
F0.0
sg27
F384930.0
sg28
F0.0
ssg1
(g5
S'\x14\x00\x00\x00\x00\x00\x00\x00'
p105
tp106
Rp107
(dp108
g12
F0.0
sg13
F0.0
sg14
F87410.0
sg15
F0.0
sg16
F0.0
sg17
F0.0
sg18
F1030329.0
sg19
F33785.0
sg20
F0.0
sg21
F1030329.0
sg22
F0.0
sg23
F0.0
sg24
F0.0
sg25
I00
sg26
F0.0
sg27
F0.0
sg28
F0.0
ssg1
(g5
S'\x15\x00\x00\x00\x00\x00\x00\x00'
p109
tp110
Rp111
(dp112
g12
F357091.0
sg13
F671.0
sg14
F1798780.0
sg15
F2.533532041728763
sg16
F850000.0
sg17
F2.08078335373317
sg18
F5898997.0
sg19
F50936.0
sg20
F0.0
sg21
F4346544.0
sg22
F146.0
sg23
F2.0
sg24
F0.0
sg25
I00
sg26
F215.0
sg27
F1552453.0
sg28
F17.0
ssg1
(g5
S'\x16\x00\x00\x00\x00\x00\x00\x00'
p113
tp114
Rp115
(dp116
g12
F271442.0
sg13
F8305.0
sg14
F3471141.0
sg15
F3.0222757375075253
sg16
F3100000.0
sg17
F4.435363301106349
sg18
F547143.0
sg19
F5774.0
sg20
F11.226851851851851
sg21
F81042.0
sg22
F1728.0
sg23
F93925.0
sg24
F194.0
sg25
I00
sg26
F3669.0
sg27
F466101.0
sg28
F251.0
ssg1
(g5
S'\x17\x00\x00\x00\x00\x00\x00\x00'
p117
tp118
Rp119
(dp120
g12
F0.0
sg13
F0.0
sg14
F0.0
sg15
F0.0
sg16
F0.0
sg17
F0.0
sg18
F0.0
sg19
F0.0
sg20
F0.0
sg21
F0.0
sg22
F0.0
sg23
F0.0
sg24
F0.0
sg25
I00
sg26
F0.0
sg27
F32460.0
sg28
F0.0
ssg1
(g5
S'\x18\x00\x00\x00\x00\x00\x00\x00'
p121
tp122
Rp123
(dp124
g12
F0.0
sg13
F0.0
sg14
F102500.0
sg15
F0.0
sg16
F0.0
sg17
F0.0
sg18
F-44093.0
sg19
F0.0
sg20
F0.0
sg21
F3285.0
sg22
F0.0
sg23
F0.0
sg24
F0.0
sg25
I00
sg26
F0.0
sg27
F0.0
sg28
F0.0
ssg1
(g5
S'\x19\x00\x00\x00\x00\x00\x00\x00'
p125
tp126
Rp127
(dp128
g12
F304110.0
sg13
F3221.0
sg14
F3038702.0
sg15
F2.9183483390251475
sg16
F2000000.0
sg17
F2.9989833954591663
sg18
F2072035.0
sg19
F178979.0
sg20
F3.0958597538232002
sg21
F1441898.0
sg22
F2681.0
sg23
F1191.0
sg24
F83.0
sg25
I00
sg26
F1730.0
sg27
F630137.0
sg28
F94.0
ssg1
(g5
S'\x1a\x00\x00\x00\x00\x00\x00\x00'
p129
tp130
Rp131
(dp132
g12
F0.0
sg13
F0.0
sg14
F189583.0
sg15
F0.0
sg16
F0.0
sg17
F0.0
sg18
F0.0
sg19
F0.0
sg20
F0.0
sg21
F0.0
sg22
F0.0
sg23
F189583.0
sg24
F0.0
sg25
I00
sg26
F0.0
sg27
F0.0
sg28
F0.0
ssg1
(g5
S'\x1b\x00\x00\x00\x00\x00\x00\x00'
p133
tp134
Rp135
(dp136
g12
F187922.0
sg13
F383.0
sg14
F618850.0
sg15
F1.0443864229765014
sg16
F250000.0
sg17
F0.904977375565611
sg18
F659249.0
sg19
F59175.0
sg20
F0.0
sg21
F0.0
sg22
F59.0
sg23
F427316.0
sg24
F0.0
sg25
I00
sg26
F233.0
sg27
F659249.0
sg28
F4.0
ssg1
(g5
S'\x1c\x00\x00\x00\x00\x00\x00\x00'
p137
tp138
Rp139
(dp140
g12
F0.0
sg13
F0.0
sg14
F228656.0
sg15
F0.0
sg16
F0.0
sg17
F0.0
sg18
F0.0
sg19
F228656.0
sg20
F0.0
sg21
F0.0
sg22
F0.0
sg23
F0.0
sg24
F0.0
sg25
I00
sg26
F0.0
sg27
F0.0
sg28
F0.0
ssg1
(g5
S'\x1d\x00\x00\x00\x00\x00\x00\x00'
p141
tp142
Rp143
(dp144
g12
F213625.0
sg13
F1607.0
sg14
F2047593.0
sg15
F1.4312383322962041
sg16
F1000000.0
sg17
F1.8822100789313905
sg18
F1843816.0
sg19
F38559.0
sg20
F20.0
sg21
F1465734.0
sg22
F40.0
sg23
F425688.0
sg24
F8.0
sg25
I00
sg26
F1336.0
sg27
F378082.0
sg28
F23.0
ssg1
(g5
S'\x1e\x00\x00\x00\x00\x00\x00\x00'
p145
tp146
Rp147
(dp148
g12
F249201.0
sg13
F1328.0
sg14
F1099100.0
sg15
F2.635542168674699
sg16
F700000.0
sg17
F5.886524822695035
sg18
F1918887.0
sg19
F33271.0
sg20
F58.536585365853654
sg21
F1635238.0
sg22
F82.0
sg23
F1950.0
sg24
F48.0
sg25
I01
sg26
F1258.0
sg27
F283649.0
sg28
F35.0
ssg1
(g5
S'\x1f\x00\x00\x00\x00\x00\x00\x00'
p149
tp150
Rp151
(dp152
g12
F0.0
sg13
F0.0
sg14
F0.0
sg15
F0.0
sg16
F0.0
sg17
F0.0
sg18
F98718.0
sg19
F0.0
sg20
F0.0
sg21
F98718.0
sg22
F0.0
sg23
F0.0
sg24
F0.0
sg25
I00
sg26
F0.0
sg27
F0.0
sg28
F0.0
ssg1
(g5
S' \x00\x00\x00\x00\x00\x00\x00'
p153
tp154
Rp155
(dp156
g12
F231330.0
sg13
F7315.0
sg14
F969068.0
sg15
F1.9685577580314422
sg16
F700000.0
sg17
F4.546234345513811
sg18
F126027.0
sg19
F37172.0
sg20
F8.887865530739122
sg21
F0.0
sg22
F4343.0
sg23
F566.0
sg24
F386.0
sg25
I00
sg26
F2639.0
sg27
F126027.0
sg28
F144.0
ssg1
(g5
S'!\x00\x00\x00\x00\x00\x00\x00'
p157
tp158
Rp159
(dp160
g12
F0.0
sg13
F573.0
sg14
F475.0
sg15
F0.6980802792321117
sg16
F0.0
sg17
F1.8581081081081081
sg18
F2217299.0
sg19
F475.0
sg20
F36.84210526315789
sg21
F0.0
sg22
F19.0
sg23
F0.0
sg24
F7.0
sg25
I00
sg26
F471.0
sg27
F2217299.0
sg28
F4.0
ssg1
(g5
S'"\x00\x00\x00\x00\x00\x00\x00'
p161
tp162
Rp163
(dp164
g12
F182245.0
sg13
F0.0
sg14
F2692324.0
sg15
F0.0
sg16
F200000.0
sg17
F0.0
sg18
F1008941.0
sg19
F21530.0
sg20
F0.0
sg21
F601438.0
sg22
F0.0
sg23
F53775.0
sg24
F0.0
sg25
I00
sg26
F0.0
sg27
F407503.0
sg28
F0.0
ssg1
(g5
S'#\x00\x00\x00\x00\x00\x00\x00'
p165
tp166
Rp167
(dp168
g12
F0.0
sg13
F0.0
sg14
F148.0
sg15
F0.0
sg16
F0.0
sg17
F0.0
sg18
F0.0
sg19
F148.0
sg20
F0.0
sg21
F0.0
sg22
F0.0
sg23
F0.0
sg24
F0.0
sg25
I00
sg26
F0.0
sg27
F0.0
sg28
F0.0
ssg1
(g5
S'$\x00\x00\x00\x00\x00\x00\x00'
p169
tp170
Rp171
(dp172
g12
F211788.0
sg13
F1320.0
sg14
F2081796.0
sg15
F3.0303030303030303
sg16
F1700000.0
sg17
F3.0438010393466963
sg18
F441096.0
sg19
F98849.0
sg20
F3.7037037037037033
sg21
F0.0
sg22
F27.0
sg23
F1936.0
sg24
F1.0
sg25
I00
sg26
F900.0
sg27
F441096.0
sg28
F40.0
ssg1
(g5
S'%\x00\x00\x00\x00\x00\x00\x00'
p173
tp174
Rp175
(dp176
g12
F0.0
sg13
F0.0
sg14
F0.0
sg15
F0.0
sg16
F0.0
sg17
F0.0
sg18
F189518.0
sg19
F0.0
sg20
F0.0
sg21
F0.0
sg22
F0.0
sg23
F0.0
sg24
F0.0
sg25
I00
sg26
F0.0
sg27
F662086.0
sg28
F0.0
ssg1
(g5
S'&\x00\x00\x00\x00\x00\x00\x00'
p177
tp178
Rp179
(dp180
g12
F0.0
sg13
F952.0
sg14
F0.0
sg15
F1.050420168067227
sg16
F0.0
sg17
F1.0224948875255624
sg18
F850477.0
sg19
F0.0
sg20
F0.0
sg21
F850477.0
sg22
F26.0
sg23
F0.0
sg24
F0.0
sg25
I00
sg26
F739.0
sg27
F0.0
sg28
F10.0
ssg1
(g5
S"'\x00\x00\x00\x00\x00\x00\x00"
p181
tp182
Rp183
(dp184
g12
F0.0
sg13
F504.0
sg14
F7961.0
sg15
F3.1746031746031744
sg16
F0.0
sg17
F3.10077519379845
sg18
F151418.0
sg19
F0.0
sg20
F0.0
sg21
F0.0
sg22
F12.0
sg23
F0.0
sg24
F0.0
sg25
I00
sg26
F50.0
sg27
F151418.0
sg28
F16.0
ssg1
(g5
S'(\x00\x00\x00\x00\x00\x00\x00'
p185
tp186
Rp187
(dp188
g12
F0.0
sg13
F1433.0
sg14
F0.0
sg15
F1.7445917655268668
sg16
F0.0
sg17
F1.6383495145631068
sg18
F758931.0
sg19
F0.0
sg20
F0.9302325581395349
sg21
F664375.0
sg22
F215.0
sg23
F0.0
sg24
F2.0
sg25
I00
sg26
F508.0
sg27
F94556.0
sg28
F25.0
ssg1
(g5
S')\x00\x00\x00\x00\x00\x00\x00'
p189
tp190
Rp191
(dp192
g12
F224305.0
sg13
F0.0
sg14
F2652612.0
sg15
F0.0
sg16
F800000.0
sg17
F0.0
sg18
F985032.0
sg19
F118134.0
sg20
F0.0
sg21
F0.0
sg22
F0.0
sg23
F907502.0
sg24
F0.0
sg25
I01
sg26
F0.0
sg27
F985032.0
sg28
F0.0
ssg1
(g5
S'*\x00\x00\x00\x00\x00\x00\x00'
p193
tp194
Rp195
(dp196
g12
F273746.0
sg13
F2822.0
sg14
F2664228.0
sg15
F2.374202693125443
sg16
F1000000.0
sg17
F2.8076256499133447
sg18
F360528.0
sg19
F0.0
sg20
F22.22222222222222
sg21
F0.0
sg22
F63.0
sg23
F3083.0
sg24
F14.0
sg25
I00
sg26
F2672.0
sg27
F360528.0
sg28
F67.0
ssg1
(g5
S'+\x00\x00\x00\x00\x00\x00\x00'
p197
tp198
Rp199
(dp200
g12
F339288.0
sg13
F7259.0
sg14
F10425757.0
sg15
F7.273729163796666
sg16
F8000000.0
sg17
F9.538805363673305
sg18
F5167144.0
sg19
F49537.0
sg20
F15.899419729206961
sg21
F4158995.0
sg22
F2585.0
sg23
F1552.0
sg24
F411.0
sg25
I00
sg26
F3962.0
sg27
F1008149.0
sg28
F528.0
ssg1
(g5
S',\x00\x00\x00\x00\x00\x00\x00'
p201
tp202
Rp203
(dp204
g12
F216582.0
sg13
F0.0
sg14
F228474.0
sg15
F0.0
sg16
F0.0
sg17
F0.0
sg18
F2493616.0
sg19
F11892.0
sg20
F0.0
sg21
F1624396.0
sg22
F0.0
sg23
F0.0
sg24
F0.0
sg25
I00
sg26
F0.0
sg27
F869220.0
sg28
F0.0
ssg1
(g5
S'-\x00\x00\x00\x00\x00\x00\x00'
p205
tp206
Rp207
(dp208
g12
F210500.0
sg13
F0.0
sg14
F1204583.0
sg15
F0.0
sg16
F425000.0
sg17
F0.0
sg18
F2027865.0
sg19
F52255.0
sg20
F0.0
sg21
F2027865.0
sg22
F0.0
sg23
F1105.0
sg24
F0.0
sg25
I00
sg26
F0.0
sg27
F315068.0
sg28
F0.0
ssg1
(g5
S'.\x00\x00\x00\x00\x00\x00\x00'
p209
tp210
Rp211
(dp212
g12
F0.0
sg13
F0.0
sg14
F213071.0
sg15
F0.0
sg16
F0.0
sg17
F0.0
sg18
F0.0
sg19
F103773.0
sg20
F0.0
sg21
F0.0
sg22
F0.0
sg23
F0.0
sg24
F0.0
sg25
I00
sg26
F0.0
sg27
F0.0
sg28
F0.0
ssg1
(g5
S'/\x00\x00\x00\x00\x00\x00\x00'
p213
tp214
Rp215
(dp216
g12
F0.0
sg13
F653.0
sg14
F0.0
sg15
F0.0
sg16
F0.0
sg17
F0.0
sg18
F0.0
sg19
F0.0
sg20
F0.0
sg21
F0.0
sg22
F26.0
sg23
F0.0
sg24
F0.0
sg25
I00
sg26
F12.0
sg27
F0.0
sg28
F0.0
ssg1
(g5
S'0\x00\x00\x00\x00\x00\x00\x00'
p217
tp218
Rp219
(dp220
g12
F272880.0
sg13
F0.0
sg14
F2146973.0
sg15
F0.0
sg16
F750000.0
sg17
F0.0
sg18
F877611.0
sg19
F0.0
sg20
F0.0
sg21
F436515.0
sg22
F0.0
sg23
F819288.0
sg24
F0.0
sg25
I00
sg26
F0.0
sg27
F441096.0
sg28
F0.0
ssg1
(g5
S'1\x00\x00\x00\x00\x00\x00\x00'
p221
tp222
Rp223
(dp224
g12
F477.0
sg13
F566.0
sg14
F916197.0
sg15
F6.890459363957597
sg16
F0.0
sg17
F6.5546218487394965
sg18
F5243487.0
sg19
F56301.0
sg20
F0.0
sg21
F4046157.0
sg22
F29.0
sg23
F864523.0
sg24
F0.0
sg25
I00
sg26
F465.0
sg27
F1757552.0
sg28
F39.0
ssg1
(g5
S'2\x00\x00\x00\x00\x00\x00\x00'
p225
tp226
Rp227
(dp228
g12
F0.0
sg13
F0.0
sg14
F77492.0
sg15
F0.0
sg16
F0.0
sg17
F0.0
sg18
F371750.0
sg19
F0.0
sg20
F0.0
sg21
F371750.0
sg22
F0.0
sg23
F0.0
sg24
F0.0
sg25
I00
sg26
F0.0
sg27
F0.0
sg28
F0.0
ssg1
(g5
S'3\x00\x00\x00\x00\x00\x00\x00'
p229
tp230
Rp231
(dp232
g12
F269076.0
sg13
F15149.0
sg14
F1057548.0
sg15
F0.48848108786058486
sg16
F650000.0
sg17
F0.849425568320704
sg18
F987001.0
sg19
F137767.0
sg20
F5.349794238683128
sg21
F607837.0
sg22
F1215.0
sg23
F705.0
sg24
F65.0
sg25
I00
sg26
F4527.0
sg27
F379164.0
sg28
F74.0
ssg1
(g5
S'4\x00\x00\x00\x00\x00\x00\x00'
p233
tp234
Rp235
(dp236
g12
F428780.0
sg13
F3187.0
sg14
F4335388.0
sg15
F0.8785691873235018
sg16
F1500000.0
sg17
F1.555352241537054
sg18
F3128982.0
sg19
F0.0
sg20
F25.0
sg21
F1835558.0
sg22
F92.0
sg23
F1852186.0
sg24
F23.0
sg25
I00
sg26
F2103.0
sg27
F1293424.0
sg28
F28.0
ssg1
(g5
S'5\x00\x00\x00\x00\x00\x00\x00'
p237
tp238
Rp239
(dp240
g12
F211844.0
sg13
F225.0
sg14
F2003885.0
sg15
F5.777777777777778
sg16
F200000.0
sg17
F10.227272727272728
sg18
F2493616.0
sg19
F22884.0
sg20
F35.8974358974359
sg21
F1624396.0
sg22
F39.0
sg23
F1573324.0
sg24
F14.0
sg25
I01
sg26
F91.0
sg27
F869220.0
sg28
F13.0
ssg1
(g5
S'6\x00\x00\x00\x00\x00\x00\x00'
p241
tp242
Rp243
(dp244
g12
F0.0
sg13
F0.0
sg14
F87492.0
sg15
F0.0
sg16
F0.0
sg17
F0.0
sg18
F412878.0
sg19
F0.0
sg20
F0.0
sg21
F412878.0
sg22
F0.0
sg23
F0.0
sg24
F0.0
sg25
I00
sg26
F0.0
sg27
F0.0
sg28
F0.0
ssg1
(g5
S'7\x00\x00\x00\x00\x00\x00\x00'
p245
tp246
Rp247
(dp248
g12
F206121.0
sg13
F714.0
sg14
F1208649.0
sg15
F16.106442577030812
sg16
F600000.0
sg17
F15.101522842639595
sg18
F159211.0
sg19
F41626.0
sg20
F5.405405405405405
sg21
F17378.0
sg22
F74.0
sg23
F25553.0
sg24
F4.0
sg25
I00
sg26
F552.0
sg27
F141833.0
sg28
F115.0
ssg1
(g5
S'8\x00\x00\x00\x00\x00\x00\x00'
p249
tp250
Rp251
(dp252
g12
F174246.0
sg13
F0.0
sg14
F704896.0
sg15
F0.0
sg16
F0.0
sg17
F0.0
sg18
F1034346.0
sg19
F116335.0
sg20
F0.0
sg21
F0.0
sg22
F0.0
sg23
F465357.0
sg24
F0.0
sg25
I00
sg26
F0.0
sg27
F1034346.0
sg28
F0.0
ssg1
(g5
S'9\x00\x00\x00\x00\x00\x00\x00'
p253
tp254
Rp255
(dp256
g12
F510364.0
sg13
F6019.0
sg14
F4677574.0
sg15
F3.090214321315833
sg16
F3000000.0
sg17
F3.193916349809886
sg18
F6079137.0
sg19
F57838.0
sg20
F4.316546762589928
sg21
F3282960.0
sg22
F556.0
sg23
F301026.0
sg24
F24.0
sg25
I00
sg26
F3920.0
sg27
F2796177.0
sg28
F186.0
ssg1
(g5
S':\x00\x00\x00\x00\x00\x00\x00'
p257
tp258
Rp259
(dp260
g12
F365038.0
sg13
F3329.0
sg14
F2101364.0
sg15
F2.763592670471613
sg16
F1100000.0
sg17
F4.710920770877944
sg18
F3101279.0
sg19
F81364.0
sg20
F7.075127644055435
sg21
F1623010.0
sg22
F2742.0
sg23
F540.0
sg24
F194.0
sg25
I00
sg26
F2189.0
sg27
F1478269.0
sg28
F92.0
ssg1
(g5
S';\x00\x00\x00\x00\x00\x00\x00'
p261
tp262
Rp263
(dp264
g12
F0.0
sg13
F58.0
sg14
F0.0
sg15
F0.0
sg16
F0.0
sg17
F1.3513513513513513
sg18
F47304.0
sg19
F0.0
sg20
F6.25
sg21
F0.0
sg22
F16.0
sg23
F0.0
sg24
F1.0
sg25
I00
sg26
F3.0
sg27
F47304.0
sg28
F0.0
ssg1
(g5
S'<\x00\x00\x00\x00\x00\x00\x00'
p265
tp266
Rp267
(dp268
g12
F365163.0
sg13
F3093.0
sg14
F4747979.0
sg15
F2.133850630455868
sg16
F3000000.0
sg17
F10.954235637779941
sg18
F3614261.0
sg19
F86174.0
sg20
F19.843597262952102
sg21
F2291113.0
sg22
F3069.0
sg23
F1661.0
sg24
F609.0
sg25
I01
sg26
F2097.0
sg27
F1323148.0
sg28
F66.0
ssg1
(g5
S'=\x00\x00\x00\x00\x00\x00\x00'
p269
tp270
Rp271
(dp272
g12
F162779.0
sg13
F0.0
sg14
F999356.0
sg15
F0.0
sg16
F100000.0
sg17
F0.0
sg18
F1362375.0
sg19
F0.0
sg20
F0.0
sg21
F1362375.0
sg22
F0.0
sg23
F162.0
sg24
F0.0
sg25
I00
sg26
F0.0
sg27
F0.0
sg28
F0.0
ssg1
(g5
S'>\x00\x00\x00\x00\x00\x00\x00'
p273
tp274
Rp275
(dp276
g12
F0.0
sg13
F0.0
sg14
F0.0
sg15
F0.0
sg16
F0.0
sg17
F0.0
sg18
F139130.0
sg19
F0.0
sg20
F0.0
sg21
F139130.0
sg22
F0.0
sg23
F0.0
sg24
F0.0
sg25
I00
sg26
F0.0
sg27
F0.0
sg28
F0.0
ssg1
(g5
S'?\x00\x00\x00\x00\x00\x00\x00'
p277
tp278
Rp279
(dp280
g12
F236457.0
sg13
F0.0
sg14
F875889.0
sg15
F0.0
sg16
F200000.0
sg17
F0.0
sg18
F3064208.0
sg19
F57727.0
sg20
F0.0
sg21
F2549361.0
sg22
F0.0
sg23
F2630.0
sg24
F0.0
sg25
I00
sg26
F0.0
sg27
F514847.0
sg28
F0.0
ssg1
(g5
S'@\x00\x00\x00\x00\x00\x00\x00'
p281
tp282
Rp283
(dp284
g12
F0.0
sg13
F0.0
sg14
F2151.0
sg15
F0.0
sg16
F0.0
sg17
F0.0
sg18
F0.0
sg19
F2151.0
sg20
F0.0
sg21
F0.0
sg22
F0.0
sg23
F0.0
sg24
F0.0
sg25
I00
sg26
F0.0
sg27
F0.0
sg28
F0.0
ssg1
(g5
S'A\x00\x00\x00\x00\x00\x00\x00'
p285
tp286
Rp287
(dp288
g12
F1072321.0
sg13
F4273.0
sg14
F103559793.0
sg15
F2.8785396676807866
sg16
F7000000.0
sg17
F3.225806451612903
sg18
F49110078.0
sg19
F99832.0
sg20
F44.44444444444444
sg21
F34348384.0
sg22
F36.0
sg23
F10359729.0
sg24
F16.0
sg25
I01
sg26
F2411.0
sg27
F14761694.0
sg28
F123.0
ssg1
(g5
S'B\x00\x00\x00\x00\x00\x00\x00'
p289
tp290
Rp291
(dp292
g12
F261516.0
sg13
F0.0
sg14
F1271582.0
sg15
F0.0
sg16
F750000.0
sg17
F0.0
sg18
F417619.0
sg19
F9410.0
sg20
F0.0
sg21
F0.0
sg22
F0.0
sg23
F150656.0
sg24
F0.0
sg25
I00
sg26
F0.0
sg27
F417619.0
sg28
F0.0
ssg1
(g5
S'C\x00\x00\x00\x00\x00\x00\x00'
p293
tp294
Rp295
(dp296
g12
F329078.0
sg13
F1184.0
sg14
F1321557.0
sg15
F1.6891891891891893
sg16
F750000.0
sg17
F2.8317152103559873
sg18
F2606763.0
sg19
F63791.0
sg20
F28.846153846153843
sg21
F1637034.0
sg22
F52.0
sg23
F972.0
sg24
F15.0
sg25
I00
sg26
F856.0
sg27
F969729.0
sg28
F20.0
ssg1
(g5
S'D\x00\x00\x00\x00\x00\x00\x00'
p297
tp298
Rp299
(dp300
g12
F0.0
sg13
F894.0
sg14
F0.0
sg15
F6.0402684563758395
sg16
F0.0
sg17
F6.063947078280044
sg18
F1691366.0
sg19
F0.0
sg20
F7.6923076923076925
sg21
F757301.0
sg22
F13.0
sg23
F0.0
sg24
F1.0
sg25
I00
sg26
F720.0
sg27
F934065.0
sg28
F54.0
ssg1
(g5
S'E\x00\x00\x00\x00\x00\x00\x00'
p301
tp302
Rp303
(dp304
g12
F184899.0
sg13
F0.0
sg14
F807956.0
sg15
F0.0
sg16
F325000.0
sg17
F0.0
sg18
F207940.0
sg19
F22344.0
sg20
F0.0
sg21
F0.0
sg22
F0.0
sg23
F713.0
sg24
F0.0
sg25
I00
sg26
F0.0
sg27
F207940.0
sg28
F0.0
ssg1
(g5
S'F\x00\x00\x00\x00\x00\x00\x00'
p305
tp306
Rp307
(dp308
g12
F192008.0
sg13
F0.0
sg14
F900585.0
sg15
F0.0
sg16
F509870.0
sg17
F0.0
sg18
F318607.0
sg19
F50080.0
sg20
F0.0
sg21
F83237.0
sg22
F0.0
sg23
F76547.0
sg24
F0.0
sg25
I00
sg26
F0.0
sg27
F235370.0
sg28
F0.0
ssg1
(g5
S'G\x00\x00\x00\x00\x00\x00\x00'
p309
tp310
Rp311
(dp312
g12
F263413.0
sg13
F1744.0
sg14
F1318763.0
sg15
F2.981651376146789
sg16
F900000.0
sg17
F2.9001673173452316
sg18
F947861.0
sg19
F228763.0
sg20
F0.0
sg21
F506765.0
sg22
F49.0
sg23
F51587.0
sg24
F0.0
sg25
I00
sg26
F1469.0
sg27
F441096.0
sg28
F52.0
ssg1
(g5
S'H\x00\x00\x00\x00\x00\x00\x00'
p313
tp314
Rp315
(dp316
g12
F262663.0
sg13
F0.0
sg14
F1297461.0
sg15
F0.0
sg16
F700000.0
sg17
F0.0
sg18
F668132.0
sg19
F48357.0
sg20
F0.0
sg21
F187500.0
sg22
F0.0
sg23
F416441.0
sg24
F0.0
sg25
I00
sg26
F0.0
sg27
F480632.0
sg28
F0.0
ssg1
(g5
S'I\x00\x00\x00\x00\x00\x00\x00'
p317
tp318
Rp319
(dp320
g12
F0.0
sg13
F0.0
sg14
F0.0
sg15
F0.0
sg16
F0.0
sg17
F0.0
sg18
F759557.0
sg19
F0.0
sg20
F0.0
sg21
F759557.0
sg22
F0.0
sg23
F0.0
sg24
F0.0
sg25
I00
sg26
F0.0
sg27
F0.0
sg28
F0.0
ssg1
(g5
S'J\x00\x00\x00\x00\x00\x00\x00'
p321
tp322
Rp323
(dp324
g12
F0.0
sg13
F0.0
sg14
F0.0
sg15
F0.0
sg16
F0.0
sg17
F0.0
sg18
F1945360.0
sg19
F0.0
sg20
F0.0
sg21
F1753766.0
sg22
F0.0
sg23
F0.0
sg24
F0.0
sg25
I00
sg26
F0.0
sg27
F264013.0
sg28
F0.0
ssg1
(g5
S'K\x00\x00\x00\x00\x00\x00\x00'
p325
tp326
Rp327
(dp328
g12
F374125.0
sg13
F4009.0
sg14
F3859065.0
sg15
F4.489897730107259
sg16
F1150000.0
sg17
F4.050420168067228
sg18
F803094.0
sg19
F76169.0
sg20
F3.1427099433281813
sg21
F608750.0
sg22
F1941.0
sg23
F52382.0
sg24
F61.0
sg25
I00
sg26
F1847.0
sg27
F524169.0
sg28
F180.0
ssg1
(g5
S'L\x00\x00\x00\x00\x00\x00\x00'
p329
tp330
Rp331
(dp332
g12
F278601.0
sg13
F1858.0
sg14
F2669589.0
sg15
F7.534983853606028
sg16
F1350000.0
sg17
F8.222811671087534
sg18
F252055.0
sg19
F65907.0
sg20
F55.55555555555556
sg21
F0.0
sg22
F27.0
sg23
F1621.0
sg24
F15.0
sg25
I01
sg26
F1593.0
sg27
F252055.0
sg28
F140.0
ssg1
(g5
S'M\x00\x00\x00\x00\x00\x00\x00'
p333
tp334
Rp335
(dp336
g12
F0.0
sg13
F0.0
sg14
F0.0
sg15
F0.0
sg16
F0.0
sg17
F0.0
sg18
F85641.0
sg19
F0.0
sg20
F0.0
sg21
F9803.0
sg22
F0.0
sg23
F0.0
sg24
F0.0
sg25
I00
sg26
F0.0
sg27
F75838.0
sg28
F0.0
ssg1
(g5
S'N\x00\x00\x00\x00\x00\x00\x00'
p337
tp338
Rp339
(dp340
g12
F199157.0
sg13
F936.0
sg14
F1414857.0
sg15
F0.10683760683760685
sg16
F350000.0
sg17
F0.9453781512605042
sg18
F1621236.0
sg19
F23870.0
sg20
F50.0
sg21
F664461.0
sg22
F16.0
sg23
F285414.0
sg24
F8.0
sg25
I00
sg26
F723.0
sg27
F956775.0
sg28
F1.0
ssg1
(g5
S'O\x00\x00\x00\x00\x00\x00\x00'
p341
tp342
Rp343
(dp344
g12
F0.0
sg13
F672.0
sg14
F0.0
sg15
F0.0
sg16
F0.0
sg17
F0.0
sg18
F221141.0
sg19
F0.0
sg20
F0.0
sg21
F59539.0
sg22
F19.0
sg23
F0.0
sg24
F0.0
sg25
I00
sg26
F127.0
sg27
F161602.0
sg28
F0.0
ssg1
(g5
S'P\x00\x00\x00\x00\x00\x00\x00'
p345
tp346
Rp347
(dp348
g12
F96840.0
sg13
F1671.0
sg14
F111529.0
sg15
F12.208258527827647
sg16
F0.0
sg17
F13.372093023255813
sg18
F7890324.0
sg19
F14689.0
sg20
F22.171945701357465
sg21
F7509039.0
sg22
F221.0
sg23
F0.0
sg24
F49.0
sg25
I00
sg26
F1063.0
sg27
F381285.0
sg28
F204.0
ssg1
(g5
S'Q\x00\x00\x00\x00\x00\x00\x00'
p349
tp350
Rp351
(dp352
g12
F80818.0
sg13
F0.0
sg14
F860136.0
sg15
F0.0
sg16
F0.0
sg17
F0.0
sg18
F1599641.0
sg19
F0.0
sg20
F0.0
sg21
F1599641.0
sg22
F0.0
sg23
F874.0
sg24
F0.0
sg25
I00
sg26
F0.0
sg27
F0.0
sg28
F0.0
ssg1
(g5
S'R\x00\x00\x00\x00\x00\x00\x00'
p353
tp354
Rp355
(dp356
g12
F213999.0
sg13
F7991.0
sg14
F5501630.0
sg15
F2.85320986109373
sg16
F5249999.0
sg17
F3.9646017699115044
sg18
F1110705.0
sg19
F17355.0
sg20
F22.31404958677686
sg21
F953136.0
sg22
F484.0
sg23
F210698.0
sg24
F108.0
sg25
I01
sg26
F5521.0
sg27
F157569.0
sg28
F228.0
ssg1
(g5
S'S\x00\x00\x00\x00\x00\x00\x00'
p357
tp358
Rp359
(dp360
g12
F210692.0
sg13
F904.0
sg14
F2093263.0
sg15
F11.725663716814159
sg16
F750000.0
sg17
F11.899563318777293
sg18
F1640910.0
sg19
F25785.0
sg20
F25.0
sg21
F1451869.0
sg22
F12.0
sg23
F1568.0
sg24
F3.0
sg25
I00
sg26
F599.0
sg27
F189041.0
sg28
F106.0
ssg1
(g5
S'T\x00\x00\x00\x00\x00\x00\x00'
p361
tp362
Rp363
(dp364
g12
F222093.0
sg13
F266.0
sg14
F911453.0
sg15
F0.0
sg16
F0.0
sg17
F0.0
sg18
F4817796.0
sg19
F46145.0
sg20
F0.0
sg21
F4452476.0
sg22
F41.0
sg23
F426629.0
sg24
F0.0
sg25
I00
sg26
F73.0
sg27
F365320.0
sg28
F0.0
ssg1
(g5
S'U\x00\x00\x00\x00\x00\x00\x00'
p365
tp366
Rp367
(dp368
g12
F440698.0
sg13
F0.0
sg14
F2424083.0
sg15
F0.0
sg16
F1300000.0
sg17
F0.0
sg18
F1794412.0
sg19
F55921.0
sg20
F0.0
sg21
F0.0
sg22
F0.0
sg23
F277464.0
sg24
F0.0
sg25
I01
sg26
F0.0
sg27
F1794412.0
sg28
F0.0
ssg1
(g5
S'V\x00\x00\x00\x00\x00\x00\x00'
p369
tp370
Rp371
(dp372
g12
F0.0
sg13
F57.0
sg14
F181755.0
sg15
F0.0
sg16
F0.0
sg17
F0.0
sg18
F343434.0
sg19
F0.0
sg20
F0.0
sg21
F343434.0
sg22
F13.0
sg23
F0.0
sg24
F0.0
sg25
I00
sg26
F2.0
sg27
F0.0
sg28
F0.0
ssg1
(g5
S'W\x00\x00\x00\x00\x00\x00\x00'
p373
tp374
Rp375
(dp376
g12
F240189.0
sg13
F2598.0
sg14
F1639297.0
sg15
F7.659738260200154
sg16
F1250000.0
sg17
F8.169219547775347
sg18
F126027.0
sg19
F35818.0
sg20
F17.36111111111111
sg21
F0.0
sg22
F144.0
sg23
F486.0
sg24
F25.0
sg25
I01
sg26
F2188.0
sg27
F126027.0
sg28
F199.0
ssg1
(g5
S'X\x00\x00\x00\x00\x00\x00\x00'
p377
tp378
Rp379
(dp380
g12
F420636.0
sg13
F905.0
sg14
F505050.0
sg15
F4.640883977900553
sg16
F1750000.0
sg17
F4.9837486457204765
sg18
F22542539.0
sg19
F46950.0
sg20
F22.22222222222222
sg21
F19794175.0
sg22
F18.0
sg23
F174839.0
sg24
F4.0
sg25
I01
sg26
F864.0
sg27
F2748364.0
sg28
F42.0
ssg1
(g5
S'Y\x00\x00\x00\x00\x00\x00\x00'
p381
tp382
Rp383
(dp384
g12
F275101.0
sg13
F4607.0
sg14
F1086821.0
sg15
F0.8899500759713479
sg16
F400000.0
sg17
F1.1172595520421607
sg18
F976037.0
sg19
F83585.0
sg20
F1.1901447661469933
sg21
F850010.0
sg22
F14368.0
sg23
F4669.0
sg24
F171.0
sg25
I00
sg26
F583.0
sg27
F126027.0
sg28
F41.0
ssg1
(g5
S'Z\x00\x00\x00\x00\x00\x00\x00'
p385
tp386
Rp387
(dp388
g12
F0.0
sg13
F0.0
sg14
F0.0
sg15
F0.0
sg16
F0.0
sg17
F0.0
sg18
F0.0
sg19
F0.0
sg20
F0.0
sg21
F0.0
sg22
F0.0
sg23
F0.0
sg24
F0.0
sg25
I00
sg26
F0.0
sg27
F0.0
sg28
F0.0
ssg1
(g5
S'[\x00\x00\x00\x00\x00\x00\x00'
p389
tp390
Rp391
(dp392
g12
F314288.0
sg13
F102.0
sg14
F1101393.0
sg15
F0.0
sg16
F800000.0
sg17
F2.9629629629629632
sg18
F495633.0
sg19
F27861.0
sg20
F12.121212121212121
sg21
F117551.0
sg22
F33.0
sg23
F494.0
sg24
F4.0
sg25
I00
sg26
F71.0
sg27
F378082.0
sg28
F0.0
ssg1
(g5
S'\\\x00\x00\x00\x00\x00\x00\x00'
p393
tp394
Rp395
(dp396
g12
F94941.0
sg13
F0.0
sg14
F249787.0
sg15
F0.0
sg16
F0.0
sg17
F0.0
sg18
F7307594.0
sg19
F18834.0
sg20
F0.0
sg21
F5266578.0
sg22
F0.0
sg23
F176.0
sg24
F0.0
sg25
I00
sg26
F0.0
sg27
F2041016.0
sg28
F0.0
ssg1
(g5
S']\x00\x00\x00\x00\x00\x00\x00'
p397
tp398
Rp399
(dp400
g12
F0.0
sg13
F0.0
sg14
F27942.0
sg15
F0.0
sg16
F0.0
sg17
F0.0
sg18
F0.0
sg19
F27942.0
sg20
F0.0
sg21
F0.0
sg22
F0.0
sg23
F0.0
sg24
F0.0
sg25
I00
sg26
F0.0
sg27
F0.0
sg28
F0.0
ssg1
(g5
S'^\x00\x00\x00\x00\x00\x00\x00'
p401
tp402
Rp403
(dp404
g12
F239502.0
sg13
F0.0
sg14
F1112087.0
sg15
F0.0
sg16
F500000.0
sg17
F0.0
sg18
F511734.0
sg19
F16514.0
sg20
F0.0
sg21
F0.0
sg22
F0.0
sg23
F356071.0
sg24
F0.0
sg25
I00
sg26
F0.0
sg27
F511734.0
sg28
F0.0
ssg1
(g5
S'_\x00\x00\x00\x00\x00\x00\x00'
p405
tp406
Rp407
(dp408
g12
F1111258.0
sg13
F3627.0
sg14
F8682716.0
sg15
F2.42624758753791
sg16
F5600000.0
sg17
F3.1593038821954487
sg18
F26093672.0
sg19
F29336.0
sg20
F27.77777777777778
sg21
F19250000.0
sg22
F108.0
sg23
F22122.0
sg24
F30.0
sg25
I01
sg26
F2042.0
sg27
F6843672.0
sg28
F88.0
ssg1
(g5
S'`\x00\x00\x00\x00\x00\x00\x00'
p409
tp410
Rp411
(dp412
g12
F0.0
sg13
F0.0
sg14
F1279.0
sg15
F0.0
sg16
F0.0
sg17
F0.0
sg18
F0.0
sg19
F1279.0
sg20
F0.0
sg21
F0.0
sg22
F0.0
sg23
F0.0
sg24
F0.0
sg25
I00
sg26
F0.0
sg27
F0.0
sg28
F0.0
ssg1
(g5
S'a\x00\x00\x00\x00\x00\x00\x00'
p413
tp414
Rp415
(dp416
g12
F0.0
sg13
F613.0
sg14
F0.0
sg15
F6.36215334420881
sg16
F0.0
sg17
F8.934169278996865
sg18
F1832468.0
sg19
F0.0
sg20
F72.0
sg21
F1426469.0
sg22
F25.0
sg23
F0.0
sg24
F18.0
sg25
I00
sg26
F583.0
sg27
F405999.0
sg28
F39.0
ssg1
(g5
S'b\x00\x00\x00\x00\x00\x00\x00'
p417
tp418
Rp419
(dp420
g12
F0.0
sg13
F0.0
sg14
F564348.0
sg15
F0.0
sg16
F0.0
sg17
F0.0
sg18
F1095040.0
sg19
F0.0
sg20
F0.0
sg21
F886231.0
sg22
F0.0
sg23
F0.0
sg24
F0.0
sg25
I00
sg26
F0.0
sg27
F208809.0
sg28
F0.0
ssg1
(g5
S'c\x00\x00\x00\x00\x00\x00\x00'
p421
tp422
Rp423
(dp424
g12
F6615.0
sg13
F0.0
sg14
F1146658.0
sg15
F0.0
sg16
F0.0
sg17
F0.0
sg18
F0.0
sg19
F0.0
sg20
F0.0
sg21
F0.0
sg22
F0.0
sg23
F680833.0
sg24
F0.0
sg25
I00
sg26
F0.0
sg27
F0.0
sg28
F0.0
ssg1
(g5
S'd\x00\x00\x00\x00\x00\x00\x00'
p425
tp426
Rp427
(dp428
g12
F655037.0
sg13
F898.0
sg14
F1386690.0
sg15
F0.779510022271715
sg16
F300000.0
sg17
F0.7253886010362695
sg18
F28798.0
sg19
F31653.0
sg20
F0.0
sg21
F28798.0
sg22
F67.0
sg23
F0.0
sg24
F0.0
sg25
I00
sg26
F728.0
sg27
F0.0
sg28
F7.0
ssg1
(g5
S'e\x00\x00\x00\x00\x00\x00\x00'
p429
tp430
Rp431
(dp432
g12
F0.0
sg13
F0.0
sg14
F362096.0
sg15
F0.0
sg16
F0.0
sg17
F0.0
sg18
F0.0
sg19
F0.0
sg20
F0.0
sg21
F0.0
sg22
F0.0
sg23
F362096.0
sg24
F0.0
sg25
I00
sg26
F0.0
sg27
F0.0
sg28
F0.0
ssg1
(g5
S'f\x00\x00\x00\x00\x00\x00\x00'
p433
tp434
Rp435
(dp436
g12
F0.0
sg13
F0.0
sg14
F774401.0
sg15
F0.0
sg16
F0.0
sg17
F0.0
sg18
F368705.0
sg19
F0.0
sg20
F0.0
sg21
F0.0
sg22
F0.0
sg23
F0.0
sg24
F0.0
sg25
I00
sg26
F0.0
sg27
F463261.0
sg28
F0.0
ssg1
(g5
S'g\x00\x00\x00\x00\x00\x00\x00'
p437
tp438
Rp439
(dp440
g12
F404338.0
sg13
F12754.0
sg14
F1747522.0
sg15
F1.0976948408342482
sg16
F1000000.0
sg17
F2.700763593501768
sg18
F6153642.0
sg19
F41953.0
sg20
F5.725699067909454
sg21
F2022048.0
sg22
F6759.0
sg23
F1231.0
sg24
F387.0
sg25
I00
sg26
F3639.0
sg27
F4131594.0
sg28
F140.0
ssg1
(g5
S'h\x00\x00\x00\x00\x00\x00\x00'
p441
tp442
Rp443
(dp444
g12
F0.0
sg13
F517.0
sg14
F0.0
sg15
F0.0
sg16
F0.0
sg17
F0.0
sg18
F1884748.0
sg19
F0.0
sg20
F0.0
sg21
F1324578.0
sg22
F36.0
sg23
F0.0
sg24
F0.0
sg25
I00
sg26
F10.0
sg27
F560170.0
sg28
F0.0
ssg1
(g5
S'i\x00\x00\x00\x00\x00\x00\x00'
p445
tp446
Rp447
(dp448
g12
F259996.0
sg13
F400.0
sg14
F1034395.0
sg15
F5.5
sg16
F325000.0
sg17
F6.744186046511628
sg18
F2056427.0
sg19
F0.0
sg20
F23.333333333333332
sg21
F1668260.0
sg22
F30.0
sg23
F1425.0
sg24
F7.0
sg25
I00
sg26
F337.0
sg27
F388167.0
sg28
F22.0
ssg1
(g5
S'j\x00\x00\x00\x00\x00\x00\x00'
p449
tp450
Rp451
(dp452
g12
F317543.0
sg13
F0.0
sg14
F1934359.0
sg15
F0.0
sg16
F450000.0
sg17
F0.0
sg18
F15144123.0
sg19
F81353.0
sg20
F0.0
sg21
F1297049.0
sg22
F0.0
sg23
F1085463.0
sg24
F0.0
sg25
I00
sg26
F0.0
sg27
F13847074.0
sg28
F0.0
ssg1
(g5
S'k\x00\x00\x00\x00\x00\x00\x00'
p453
tp454
Rp455
(dp456
g12
F0.0
sg13
F0.0
sg14
F0.0
sg15
F0.0
sg16
F0.0
sg17
F0.0
sg18
F6077885.0
sg19
F0.0
sg20
F0.0
sg21
F5127155.0
sg22
F0.0
sg23
F0.0
sg24
F0.0
sg25
I00
sg26
F0.0
sg27
F950730.0
sg28
F0.0
ssg1
(g5
S'l\x00\x00\x00\x00\x00\x00\x00'
p457
tp458
Rp459
(dp460
g12
F201955.0
sg13
F2902.0
sg14
F4484442.0
sg15
F1.6195727084769125
sg16
F4175000.0
sg17
F2.1973710025505198
sg18
F1729541.0
sg19
F13868.0
sg20
F2.9612756264236904
sg21
F1729541.0
sg22
F2195.0
sg23
F152.0
sg24
F65.0
sg25
I00
sg26
F1407.0
sg27
F126027.0
sg28
F47.0
ssg1
(g5
S'm\x00\x00\x00\x00\x00\x00\x00'
p461
tp462
Rp463
(dp464
g12
F248146.0
sg13
F3136.0
sg14
F1576511.0
sg15
F0.7653061224489796
sg16
F600000.0
sg17
F0.9168704156479218
sg18
F494136.0
sg19
F116337.0
sg20
F4.411764705882353
sg21
F281073.0
sg22
F136.0
sg23
F2401.0
sg24
F6.0
sg25
I00
sg26
F2477.0
sg27
F213063.0
sg28
F24.0
ssg1
(g5
S'n\x00\x00\x00\x00\x00\x00\x00'
p465
tp466
Rp467
(dp468
g12
F0.0
sg13
F0.0
sg14
F83750.0
sg15
F0.0
sg16
F0.0
sg17
F0.0
sg18
F431750.0
sg19
F0.0
sg20
F0.0
sg21
F431750.0
sg22
F0.0
sg23
F0.0
sg24
F0.0
sg25
I00
sg26
F0.0
sg27
F44093.0
sg28
F0.0
ssg1
(g5
S'o\x00\x00\x00\x00\x00\x00\x00'
p469
tp470
Rp471
(dp472
g12
F0.0
sg13
F0.0
sg14
F84992.0
sg15
F0.0
sg16
F0.0
sg17
F0.0
sg18
F0.0
sg19
F1413.0
sg20
F0.0
sg21
F0.0
sg22
F0.0
sg23
F0.0
sg24
F0.0
sg25
I00
sg26
F0.0
sg27
F0.0
sg28
F0.0
ssg1
(g5
S'p\x00\x00\x00\x00\x00\x00\x00'
p473
tp474
Rp475
(dp476
g12
F0.0
sg13
F1486.0
sg14
F49288.0
sg15
F0.8748317631224763
sg16
F0.0
sg17
F0.9168303863785201
sg18
F0.0
sg19
F49288.0
sg20
F2.4390243902439024
sg21
F0.0
sg22
F41.0
sg23
F0.0
sg24
F1.0
sg25
I00
sg26
F761.0
sg27
F0.0
sg28
F13.0
ssg1
(g5
S'q\x00\x00\x00\x00\x00\x00\x00'
p477
tp478
Rp479
(dp480
g12
F0.0
sg13
F0.0
sg14
F182466.0
sg15
F0.0
sg16
F0.0
sg17
F0.0
sg18
F257817.0
sg19
F3486.0
sg20
F0.0
sg21
F257817.0
sg22
F0.0
sg23
F0.0
sg24
F0.0
sg25
I00
sg26
F0.0
sg27
F0.0
sg28
F0.0
ssg1
(g5
S'r\x00\x00\x00\x00\x00\x00\x00'
p481
tp482
Rp483
(dp484
g12
F0.0
sg13
F719.0
sg14
F0.0
sg15
F4.867872044506258
sg16
F0.0
sg17
F5.3120849933598935
sg18
F1118394.0
sg19
F0.0
sg20
F14.705882352941178
sg21
F754966.0
sg22
F34.0
sg23
F0.0
sg24
F5.0
sg25
I00
sg26
F589.0
sg27
F363428.0
sg28
F35.0
ssg1
(g5
S's\x00\x00\x00\x00\x00\x00\x00'
p485
tp486
Rp487
(dp488
g12
F76399.0
sg13
F0.0
sg14
F394475.0
sg15
F0.0
sg16
F100000.0
sg17
F0.0
sg18
F4221891.0
sg19
F8409.0
sg20
F0.0
sg21
F4160672.0
sg22
F0.0
sg23
F202052.0
sg24
F0.0
sg25
I00
sg26
F0.0
sg27
F201483.0
sg28
F0.0
ssg1
(g5
S't\x00\x00\x00\x00\x00\x00\x00'
p489
tp490
Rp491
(dp492
g12
F262788.0
sg13
F0.0
sg14
F2368151.0
sg15
F0.0
sg16
F1000000.0
sg17
F0.0
sg18
F8317782.0
sg19
F35812.0
sg20
F0.0
sg21
F8191755.0
sg22
F0.0
sg23
F374689.0
sg24
F0.0
sg25
I00
sg26
F0.0
sg27
F126027.0
sg28
F0.0
ssg1
(g5
S'u\x00\x00\x00\x00\x00\x00\x00'
p493
tp494
Rp495
(dp496
g12
F0.0
sg13
F523.0
sg14
F15456290.0
sg15
F0.0
sg16
F0.0
sg17
F0.18115942028985507
sg18
F0.0
sg19
F0.0
sg20
F3.4482758620689653
sg21
F2604490.0
sg22
F29.0
sg23
F137864.0
sg24
F1.0
sg25
I00
sg26
F463.0
sg27
F-2604490.0
sg28
F0.0
ssg1
(g5
S'v\x00\x00\x00\x00\x00\x00\x00'
p497
tp498
Rp499
(dp500
g12
F261809.0
sg13
F312.0
sg14
F477557.0
sg15
F9.294871794871796
sg16
F300000.0
sg17
F11.009174311926607
sg18
F0.0
sg19
F0.0
sg20
F46.666666666666664
sg21
F0.0
sg22
F15.0
sg23
F540.0
sg24
F7.0
sg25
I00
sg26
F196.0
sg27
F307301.0
sg28
F29.0
ssg1
(g5
S'w\x00\x00\x00\x00\x00\x00\x00'
p501
tp502
Rp503
(dp504
g12
F248017.0
sg13
F1088.0
sg14
F1054637.0
sg15
F0.0
sg16
F500000.0
sg17
F0.0
sg18
F1014505.0
sg19
F600.0
sg20
F0.0
sg21
F825464.0
sg22
F125.0
sg23
F1215.0
sg24
F0.0
sg25
I00
sg26
F23.0
sg27
F189041.0
sg28
F0.0
ssg1
(g5
S'x\x00\x00\x00\x00\x00\x00\x00'
p505
tp506
Rp507
(dp508
g12
F0.0
sg13
F0.0
sg14
F55097.0
sg15
F0.0
sg16
F0.0
sg17
F0.0
sg18
F192758.0
sg19
F55097.0
sg20
F0.0
sg21
F192758.0
sg22
F0.0
sg23
F0.0
sg24
F0.0
sg25
I00
sg26
F0.0
sg27
F0.0
sg28
F0.0
ssg1
(g5
S'y\x00\x00\x00\x00\x00\x00\x00'
p509
tp510
Rp511
(dp512
g12
F229284.0
sg13
F2192.0
sg14
F812194.0
sg15
F0.5018248175182481
sg16
F400000.0
sg17
F0.581135449262405
sg18
F597461.0
sg19
F57580.0
sg20
F4.444444444444445
sg21
F400478.0
sg22
F45.0
sg23
F330.0
sg24
F2.0
sg25
I00
sg26
F395.0
sg27
F196983.0
sg28
F11.0
ssg1
(g5
S'z\x00\x00\x00\x00\x00\x00\x00'
p513
tp514
Rp515
(dp516
g12
F231946.0
sg13
F209.0
sg14
F1566469.0
sg15
F4.784688995215311
sg16
F850000.0
sg17
F14.624505928853754
sg18
F896153.0
sg19
F48405.0
sg20
F61.36363636363637
sg21
F636246.0
sg22
F44.0
sg23
F60814.0
sg24
F27.0
sg25
I00
sg26
F178.0
sg27
F259907.0
sg28
F10.0
ssg1
(g5
S'{\x00\x00\x00\x00\x00\x00\x00'
p517
tp518
Rp519
(dp520
g12
F221003.0
sg13
F176.0
sg14
F319941.0
sg15
F5.681818181818182
sg16
F70000.0
sg17
F6.842105263157896
sg18
F0.0
sg19
F28164.0
sg20
F21.428571428571427
sg21
F0.0
sg22
F14.0
sg23
F774.0
sg24
F3.0
sg25
I00
sg26
F114.0
sg27
F0.0
sg28
F10.0
ssg1
(g5
S'|\x00\x00\x00\x00\x00\x00\x00'
p521
tp522
Rp523
(dp524
g12
F158403.0
sg13
F0.0
sg14
F360300.0
sg15
F0.0
sg16
F0.0
sg17
F0.0
sg18
F11884758.0
sg19
F53947.0
sg20
F0.0
sg21
F8308552.0
sg22
F0.0
sg23
F147950.0
sg24
F0.0
sg25
I01
sg26
F0.0
sg27
F3576206.0
sg28
F0.0
ssg1
(g5
S'}\x00\x00\x00\x00\x00\x00\x00'
p525
tp526
Rp527
(dp528
g12
F0.0
sg13
F0.0
sg14
F91093.0
sg15
F0.0
sg16
F0.0
sg17
F0.0
sg18
F30766064.0
sg19
F77978.0
sg20
F0.0
sg21
F30766064.0
sg22
F0.0
sg23
F2856.0
sg24
F0.0
sg25
I01
sg26
F0.0
sg27
F0.0
sg28
F0.0
ssg1
(g5
S'~\x00\x00\x00\x00\x00\x00\x00'
p529
tp530
Rp531
(dp532
g12
F250100.0
sg13
F2572.0
sg14
F1410464.0
sg15
F11.858475894245723
sg16
F600000.0
sg17
F12.106261859582542
sg18
F1865087.0
sg19
F3475.0
sg20
F22.22222222222222
sg21
F1550019.0
sg22
F63.0
sg23
F473.0
sg24
F14.0
sg25
I00
sg26
F1902.0
sg27
F315068.0
sg28
F305.0
ssg1
(g5
S'\x7f\x00\x00\x00\x00\x00\x00\x00'
p533
tp534
Rp535
(dp536
g12
F492375.0
sg13
F2181.0
sg14
F550981.0
sg15
F2.9344337459880787
sg16
F800000.0
sg17
F2.7184466019417477
sg18
F8831913.0
sg19
F51124.0
sg20
F2.2002200220022003
sg21
F8831913.0
sg22
F909.0
sg23
F7482.0
sg24
F20.0
sg25
I00
sg26
F1401.0
sg27
F1787380.0
sg28
F64.0
ssg1
(g5
S'\x80\x00\x00\x00\x00\x00\x00\x00'
p537
tp538
Rp539
(dp540
g12
F1060932.0
sg13
F3275.0
sg14
F17252530.0
sg15
F7.3893129770992365
sg16
F2000000.0
sg17
F7.524271844660194
sg18
F14622185.0
sg19
F86987.0
sg20
F28.57142857142857
sg21
F10433518.0
sg22
F21.0
sg23
F7427621.0
sg24
F6.0
sg25
I00
sg26
F2979.0
sg27
F4188667.0
sg28
F242.0
ssg1
(g5
S'\x81\x00\x00\x00\x00\x00\x00\x00'
p541
tp542
Rp543
(dp544
g12
F261879.0
sg13
F0.0
sg14
F3123383.0
sg15
F0.0
sg16
F1000000.0
sg17
F0.0
sg18
F23817930.0
sg19
F32047.0
sg20
F0.0
sg21
F15364167.0
sg22
F0.0
sg23
F1829457.0
sg24
F0.0
sg25
I00
sg26
F0.0
sg27
F8453763.0
sg28
F0.0
ssg1
(g5
S'\x82\x00\x00\x00\x00\x00\x00\x00'
p545
tp546
Rp547
(dp548
g12
F239671.0
sg13
F0.0
sg14
F827696.0
sg15
F0.0
sg16
F400000.0
sg17
F0.0
sg18
F63014.0
sg19
F129142.0
sg20
F0.0
sg21
F0.0
sg22
F0.0
sg23
F69.0
sg24
F0.0
sg25
I00
sg26
F0.0
sg27
F145796.0
sg28
F0.0
ssg1
(g5
S'\x83\x00\x00\x00\x00\x00\x00\x00'
p549
tp550
Rp551
(dp552
g12
F0.0
sg13
F2649.0
sg14
F0.0
sg15
F1.3212533031332578
sg16
F0.0
sg17
F1.9676549865229112
sg18
F346663.0
sg19
F0.0
sg20
F3.581526861451461
sg21
F0.0
sg22
F1061.0
sg23
F0.0
sg24
F38.0
sg25
I00
sg26
F571.0
sg27
F346663.0
sg28
F35.0
ssg1
(g5
S'\x84\x00\x00\x00\x00\x00\x00\x00'
p553
tp554
Rp555
(dp556
g12
F0.0
sg13
F0.0
sg14
F50591.0
sg15
F0.0
sg16
F0.0
sg17
F0.0
sg18
F176378.0
sg19
F0.0
sg20
F0.0
sg21
F176378.0
sg22
F0.0
sg23
F0.0
sg24
F0.0
sg25
I00
sg26
F0.0
sg27
F0.0
sg28
F0.0
ssg1
(g5
S'\x85\x00\x00\x00\x00\x00\x00\x00'
p557
tp558
Rp559
(dp560
g12
F304588.0
sg13
F1755.0
sg14
F3676340.0
sg15
F2.3931623931623935
sg16
F2500000.0
sg17
F4.316939890710382
sg18
F2332399.0
sg19
F95924.0
sg20
F49.333333333333336
sg21
F940257.0
sg22
F75.0
sg23
F401481.0
sg24
F37.0
sg25
I00
sg26
F1604.0
sg27
F1392142.0
sg28
F42.0
ssg1
(g5
S'\x86\x00\x00\x00\x00\x00\x00\x00'
p561
tp562
Rp563
(dp564
g12
F309946.0
sg13
F2374.0
sg14
F1587421.0
sg15
F2.232518955349621
sg16
F700000.0
sg17
F2.792607802874743
sg18
F1920055.0
sg19
F127017.0
sg20
F24.59016393442623
sg21
F671737.0
sg22
F61.0
sg23
F150458.0
sg24
F15.0
sg25
I01
sg26
F2271.0
sg27
F1248318.0
sg28
F53.0
ssg1
(g5
S'\x87\x00\x00\x00\x00\x00\x00\x00'
p565
tp566
Rp567
(dp568
g12
F0.0
sg13
F0.0
sg14
F3750.0
sg15
F0.0
sg16
F0.0
sg17
F0.0
sg18
F0.0
sg19
F0.0
sg20
F0.0
sg21
F0.0
sg22
F0.0
sg23
F0.0
sg24
F0.0
sg25
I00
sg26
F0.0
sg27
F0.0
sg28
F0.0
ssg1
(g5
S'\x88\x00\x00\x00\x00\x00\x00\x00'
p569
tp570
Rp571
(dp572
g12
F85274.0
sg13
F496.0
sg14
F1979596.0
sg15
F5.64516129032258
sg16
F0.0
sg17
F6.407766990291262
sg18
F5819980.0
sg19
F28093.0
sg20
F26.31578947368421
sg21
F2165172.0
sg22
F19.0
sg23
F1553729.0
sg24
F5.0
sg25
I00
sg26
F437.0
sg27
F3654808.0
sg28
F28.0
ssg1
(g5
S'\x89\x00\x00\x00\x00\x00\x00\x00'
p573
tp574
Rp575
(dp576
g12
F247338.0
sg13
F460.0
sg14
F399393.0
sg15
F2.1739130434782608
sg16
F300000.0
sg17
F4.3841336116910234
sg18
F1168042.0
sg19
F0.0
sg20
F57.89473684210527
sg21
F591250.0
sg22
F19.0
sg23
F152055.0
sg24
F11.0
sg25
I00
sg26
F379.0
sg27
F576792.0
sg28
F10.0
ssg1
(g5
S'\x8a\x00\x00\x00\x00\x00\x00\x00'
p577
tp578
Rp579
(dp580
g12
F349487.0
sg13
F1522.0
sg14
F8407016.0
sg15
F0.5256241787122208
sg16
F0.0
sg17
F0.45662100456621
sg18
F2070306.0
sg19
F8211.0
sg20
F0.0
sg21
F2070306.0
sg22
F230.0
sg23
F2818454.0
sg24
F0.0
sg25
I00
sg26
F477.0
sg27
F0.0
sg28
F8.0
ssg1
(g5
S'\x8b\x00\x00\x00\x00\x00\x00\x00'
p581
tp582
Rp583
(dp584
g12
F330546.0
sg13
F3523.0
sg14
F2355702.0
sg15
F4.428044280442804
sg16
F900000.0
sg17
F4.960664335664336
sg18
F3444470.0
sg19
F0.0
sg20
F6.7426400759734095
sg21
F2542813.0
sg22
F1053.0
sg23
F400572.0
sg24
F71.0
sg25
I00
sg26
F2333.0
sg27
F901657.0
sg28
F156.0
ssg1
(g5
S'\x8c\x00\x00\x00\x00\x00\x00\x00'
p585
tp586
Rp587
(dp588
g12
F0.0
sg13
F0.0
sg14
F119292.0
sg15
F0.0
sg16
F0.0
sg17
F0.0
sg18
F0.0
sg19
F0.0
sg20
F0.0
sg21
F0.0
sg22
F0.0
sg23
F0.0
sg24
F0.0
sg25
I00
sg26
F0.0
sg27
F0.0
sg28
F0.0
ssg1
(g5
S'\x8d\x00\x00\x00\x00\x00\x00\x00'
p589
tp590
Rp591
(dp592
g12
F415189.0
sg13
F1892.0
sg14
F1868758.0
sg15
F3.06553911205074
sg16
F1000000.0
sg17
F3.6063884595569293
sg18
F2502063.0
sg19
F30674.0
sg20
F24.489795918367346
sg21
F0.0
sg22
F49.0
sg23
F307895.0
sg24
F12.0
sg25
I01
sg26
F1585.0
sg27
F2502063.0
sg28
F58.0
ssg1
(g5
S'\x8e\x00\x00\x00\x00\x00\x00\x00'
p593
tp594
Rp595
(dp596
g12
F265214.0
sg13
F533.0
sg14
F1092663.0
sg15
F0.0
sg16
F600000.0
sg17
F0.0
sg18
F3745048.0
sg19
F0.0
sg20
F0.0
sg21
F3181250.0
sg22
F29.0
sg23
F0.0
sg24
F0.0
sg25
I00
sg26
F300.0
sg27
F563798.0
sg28
F0.0
ssg1
(g5
S'\x8f\x00\x00\x00\x00\x00\x00\x00'
p597
tp598
Rp599
(dp600
g12
F278601.0
sg13
F865.0
sg14
F875760.0
sg15
F21.734104046242773
sg16
F800000.0
sg17
F22.435174746335964
sg18
F1080988.0
sg19
F96268.0
sg20
F50.0
sg21
F765920.0
sg22
F22.0
sg23
F891.0
sg24
F11.0
sg25
I00
sg26
F772.0
sg27
F315068.0
sg28
F188.0
ssg1
(g5
S'\x90\x00\x00\x00\x00\x00\x00\x00'
p601
tp602
Rp603
(dp604
g12
F274975.0
sg13
F873.0
sg14
F1272284.0
sg15
F5.956471935853378
sg16
F600000.0
sg17
F6.524184476940382
sg18
F778546.0
sg19
F125978.0
sg20
F37.5
sg21
F384728.0
sg22
F16.0
sg23
F200308.0
sg24
F6.0
sg25
I01
sg26
F874.0
sg27
F393818.0
sg28
F52.0
ss.