(lp0
S'poi'
p1
aS'salary'
p2
aS'to_messages'
p3
aS'total_payments'
p4
aS'exercised_stock_options'
p5
aS'bonus'
p6
aS'restricted_stock'
p7
aS'shared_receipt_with_poi'
p8
aS'restricted_stock_deferred'
p9
aS'total_stock_value'
p10
aS'expenses'
p11
aS'loan_advances'
p12
aS'from_messages'
p13
aS'from_this_person_to_poi'
p14
ag1
aS'director_fees'
p15
aS'deferred_income'
p16
aS'from_poi_to_this_person'
p17
a.