(lp0
S'bonus'
p1
aS'exercised_stock_options'
p2
aS'expenses'
p3
aS'from_messages'
p4
aS'from_poi_to_this_person'
p5
aS'from_this_person_to_poi'
p6
aS'other'
p7
aS'poi'
p8
aS'restricted_stock'
p9
aS'salary'
p10
aS'shared_receipt_with_poi'
p11
aS'to_messages'
p12
aS'total_payments'
p13
aS'total_stock_value'
p14
aS'poi_ratio'
p15
aS'fraction_to_poi'
p16
aS'fraction_from_poi'
p17
a.